; Function Attrs: mustprogress uwtable
define void @_ZNK32pxrInternal_v0_24__pxrReserved__26UsdPrimCompositionQueryArc14GetTargetLayerEv(ptr dead_on_unwind noalias writable writeonly sret(%"class.pxrInternal_v0_24__pxrReserved__::TfWeakPtr") align 8 captures(none) %0, ptr noundef nonnull align 8 dereferenceable(64) %1) local_unnamed_addr #0 align 2 {
  %3 = alloca %"class.pxrInternal_v0_24__pxrReserved__::TfCallContext", align 8
  %4 = tail call noundef nonnull align 8 dereferenceable(8) ptr @_ZNK32pxrInternal_v0_24__pxrReserved__10PcpNodeRef13GetLayerStackEv(ptr noundef nonnull align 8 dereferenceable(16) %1)
  call void @llvm.lifetime.start.p0(i64 40, ptr nonnull %3)
  %5 = load ptr, ptr %4, align 8
  %.not.i = icmp eq ptr %5, null
  br i1 %.not.i, label %6, label %_ZNK32pxrInternal_v0_24__pxrReserved__8TfRefPtrINS_13PcpLayerStackEEptEv.exit

6:                                                ; preds = %2
  store ptr @.str.7, ptr %3, align 8
  %7 = getelementptr inbounds nuw i8, ptr %3, i64 8
  store ptr @__func__._ZNK32pxrInternal_v0_24__pxrReserved__8TfRefPtrINS_10Tf_RemnantEEptEv, ptr %7, align 8
  %8 = getelementptr inbounds nuw i8, ptr %3, i64 16
  store i64 936, ptr %8, align 8
  %9 = getelementptr inbounds nuw i8, ptr %3, i64 24
  store ptr @__PRETTY_FUNCTION__._ZNK32pxrInternal_v0_24__pxrReserved__8TfRefPtrINS_13PcpLayerStackEEptEv, ptr %9, align 8
  %10 = getelementptr inbounds nuw i8, ptr %3, i64 32
  store i8 0, ptr %10, align 8
  call void @_ZN32pxrInternal_v0_24__pxrReserved__40Tf_PostNullSmartPtrDereferenceFatalErrorERKNS_13TfCallContextEPKc(ptr noundef nonnull align 8 dereferenceable(33) %3, ptr noundef nonnull @_ZTSN32pxrInternal_v0_24__pxrReserved__8TfRefPtrINS_13PcpLayerStackEEE) #19
  unreachable

_ZNK32pxrInternal_v0_24__pxrReserved__8TfRefPtrINS_13PcpLayerStackEEptEv.exit: ; preds = %2
  call void @llvm.lifetime.end.p0(i64 40, ptr nonnull %3)
  %11 = tail call noundef nonnull align 8 dereferenceable(80) ptr @_ZNK32pxrInternal_v0_24__pxrReserved__13PcpLayerStack13GetIdentifierEv(ptr noundef nonnull align 8 dereferenceable(617) %5)
  %12 = load ptr, ptr %11, align 8
  store ptr %12, ptr %0, align 8
  %13 = getelementptr inbounds nuw i8, ptr %0, i64 8
  %14 = getelementptr inbounds nuw i8, ptr %11, i64 8
  %15 = load ptr, ptr %14, align 8
  store ptr %15, ptr %13, align 8
  %.not.i.i.i.i = icmp eq ptr %15, null
  br i1 %.not.i.i.i.i, label %_ZN32pxrInternal_v0_24__pxrReserved__9TfWeakPtrINS_8SdfLayerEEC2ERKS2_.exit, label %16

16:                                               ; preds = %_ZNK32pxrInternal_v0_24__pxrReserved__8TfRefPtrINS_13PcpLayerStackEEptEv.exit
  %17 = getelementptr inbounds nuw i8, ptr %15, i64 8
  %18 = atomicrmw add ptr %17, i32 1 monotonic, align 4
  br label %_ZN32pxrInternal_v0_24__pxrReserved__9TfWeakPtrINS_8SdfLayerEEC2ERKS2_.exit

_ZN32pxrInternal_v0_24__pxrReserved__9TfWeakPtrINS_8SdfLayerEEC2ERKS2_.exit: ; preds = %_ZNK32pxrInternal_v0_24__pxrReserved__8TfRefPtrINS_13PcpLayerStackEEptEv.exit, %16
  ret void
}